; Function Attrs: nofree norecurse nosync nounwind memory(argmem: read) uwtable
define range(i64 -1, 1) i64 @gf_hibit(ptr noundef readonly captures(none) %0) local_unnamed_addr #2 {
  %2 = alloca [1 x %struct.gf_s], align 16
  call void @llvm.lifetime.start.p0(i64 64, ptr nonnull %2) #6
  br label %3

3:                                                ; preds = %3, %1
  %indvars.iv.i = phi i64 [ 0, %1 ], [ %indvars.iv.next.i, %3 ]
  %4 = getelementptr inbounds nuw [8 x i64], ptr %0, i64 0, i64 %indvars.iv.i
  %5 = load i64, ptr %4, align 8, !tbaa !7
  %6 = shl i64 %5, 1
  %7 = getelementptr inbounds nuw [8 x i64], ptr %2, i64 0, i64 %indvars.iv.i
  store i64 %6, ptr %7, align 8, !tbaa !7
  %indvars.iv.next.i = add nuw nsw i64 %indvars.iv.i, 1
  %exitcond.not.i = icmp eq i64 %indvars.iv.next.i, 8
  br i1 %exitcond.not.i, label %8, label %3, !llvm.loop !14

8:                                                ; preds = %3
  %9 = getelementptr inbounds nuw i8, ptr %2, i64 56
  %10 = load i64, ptr %9, align 8, !tbaa !7
  %11 = lshr i64 %10, 56
  %12 = getelementptr inbounds nuw i8, ptr %2, i64 32
  %13 = load i64, ptr %12, align 16, !tbaa !7
  %14 = add i64 %13, %11
  store i64 %14, ptr %12, align 16, !tbaa !7
  br label %15

15:                                               ; preds = %15, %8
  %16 = phi i64 [ %10, %8 ], [ %20, %15 ]
  %indvars.iv9.i = phi i64 [ 7, %8 ], [ %indvars.iv.next10.i, %15 ]
  %17 = getelementptr inbounds nuw [8 x i64], ptr %2, i64 0, i64 %indvars.iv9.i
  %18 = and i64 %16, 72057594037927935
  %indvars.iv.next10.i = add nsw i64 %indvars.iv9.i, -1
  %19 = getelementptr inbounds nuw [8 x i64], ptr %2, i64 0, i64 %indvars.iv.next10.i
  %20 = load i64, ptr %19, align 8, !tbaa !7
  %21 = lshr i64 %20, 56
  %22 = add nuw nsw i64 %21, %18
  store i64 %22, ptr %17, align 8, !tbaa !7
  %.not.i.i.i = icmp eq i64 %indvars.iv.next10.i, 0
  br i1 %.not.i.i.i, label %gf_add_RAW.exit.i, label %15, !llvm.loop !9

gf_add_RAW.exit.i:                                ; preds = %15
  %23 = load i64, ptr %2, align 16, !tbaa !7
  %24 = and i64 %23, 72057594037927935
  %25 = add nuw nsw i64 %24, %11
  store i64 %25, ptr %2, align 16, !tbaa !7
  %26 = load i64, ptr %9, align 8, !tbaa !7
  %27 = lshr i64 %26, 56
  %28 = load i64, ptr %12, align 16, !tbaa !7
  %29 = add i64 %28, %27
  store i64 %29, ptr %12, align 16, !tbaa !7
  br label %30

30:                                               ; preds = %30, %gf_add_RAW.exit.i
  %31 = phi i64 [ %26, %gf_add_RAW.exit.i ], [ %35, %30 ]
  %indvars.iv12.i = phi i64 [ 7, %gf_add_RAW.exit.i ], [ %indvars.iv.next13.i, %30 ]
  %32 = getelementptr inbounds nuw [8 x i64], ptr %2, i64 0, i64 %indvars.iv12.i
  %33 = and i64 %31, 72057594037927935
  %indvars.iv.next13.i = add nsw i64 %indvars.iv12.i, -1
  %34 = getelementptr inbounds nuw [8 x i64], ptr %2, i64 0, i64 %indvars.iv.next13.i
  %35 = load i64, ptr %34, align 8, !tbaa !7
  %36 = lshr i64 %35, 56
  %37 = add nuw nsw i64 %36, %33
  store i64 %37, ptr %32, align 8, !tbaa !7
  %.not.i.i = icmp eq i64 %indvars.iv.next13.i, 0
  br i1 %.not.i.i, label %gf_add.exit, label %30, !llvm.loop !9

gf_add.exit:                                      ; preds = %30
  %38 = and i64 %25, 72057594037927935
  %39 = add nuw nsw i64 %38, %27
  store i64 %39, ptr %2, align 16, !tbaa !7
  %40 = load i64, ptr %9, align 8, !tbaa !7
  %41 = lshr i64 %40, 56
  %42 = load i64, ptr %12, align 16, !tbaa !7
  %43 = add i64 %42, %41
  store i64 %43, ptr %12, align 16, !tbaa !7
  br label %44

44:                                               ; preds = %44, %gf_add.exit
  %45 = phi i64 [ %40, %gf_add.exit ], [ %49, %44 ]
  %indvars.iv.i2 = phi i64 [ 7, %gf_add.exit ], [ %indvars.iv.next.i3, %44 ]
  %46 = getelementptr inbounds nuw [8 x i64], ptr %2, i64 0, i64 %indvars.iv.i2
  %47 = and i64 %45, 72057594037927935
  %indvars.iv.next.i3 = add nsw i64 %indvars.iv.i2, -1
  %48 = getelementptr inbounds nuw [8 x i64], ptr %2, i64 0, i64 %indvars.iv.next.i3
  %49 = load i64, ptr %48, align 8, !tbaa !7
  %50 = lshr i64 %49, 56
  %51 = add nuw nsw i64 %50, %47
  store i64 %51, ptr %46, align 8, !tbaa !7
  %.not.i.i4 = icmp eq i64 %indvars.iv.next.i3, 0
  br i1 %.not.i.i4, label %gf_weak_reduce.exit.i, label %44, !llvm.loop !9

gf_weak_reduce.exit.i:                            ; preds = %44
  %52 = and i64 %39, 72057594037927935
  %53 = add nuw nsw i64 %41, %52
  store i64 %53, ptr %2, align 16, !tbaa !7
  br label %54

54:                                               ; preds = %54, %gf_weak_reduce.exit.i
  %indvars.iv32.i = phi i64 [ 0, %gf_weak_reduce.exit.i ], [ %indvars.iv.next33.i, %54 ]
  %.02327.i = phi i128 [ 0, %gf_weak_reduce.exit.i ], [ %65, %54 ]
  %55 = getelementptr inbounds nuw [8 x i64], ptr %2, i64 0, i64 %indvars.iv32.i
  %56 = load i64, ptr %55, align 8, !tbaa !7
  %57 = zext i64 %56 to i128
  %58 = add nsw i128 %.02327.i, %57
  %59 = getelementptr inbounds nuw [8 x i64], ptr @MODULUS, i64 0, i64 %indvars.iv32.i
  %60 = load i64, ptr %59, align 8, !tbaa !7
  %61 = zext i64 %60 to i128
  %62 = sub nsw i128 %58, %61
  %63 = trunc i128 %62 to i64
  %64 = and i64 %63, 72057594037927935
  store i64 %64, ptr %55, align 8, !tbaa !7
  %65 = ashr i128 %62, 56
  %indvars.iv.next33.i = add nuw nsw i64 %indvars.iv32.i, 1
  %exitcond.not.i5 = icmp eq i64 %indvars.iv.next33.i, 8
  br i1 %exitcond.not.i5, label %66, label %54, !llvm.loop !11

66:                                               ; preds = %54
  %67 = trunc nsw i128 %65 to i64
  br label %68

68:                                               ; preds = %68, %66
  %indvars.iv35.i = phi i64 [ 0, %66 ], [ %indvars.iv.next36.i, %68 ]
  %.02229.i = phi i128 [ 0, %66 ], [ %80, %68 ]
  %69 = getelementptr inbounds nuw [8 x i64], ptr %2, i64 0, i64 %indvars.iv35.i
  %70 = load i64, ptr %69, align 8, !tbaa !7
  %71 = zext i64 %70 to i128
  %72 = add nuw nsw i128 %.02229.i, %71
  %73 = getelementptr inbounds nuw [8 x i64], ptr @MODULUS, i64 0, i64 %indvars.iv35.i
  %74 = load i64, ptr %73, align 8, !tbaa !7
  %75 = and i64 %74, %67
  %76 = zext i64 %75 to i128
  %77 = add nuw nsw i128 %72, %76
  %78 = trunc i128 %77 to i64
  %79 = and i64 %78, 72057594037927935
  store i64 %79, ptr %69, align 8, !tbaa !7
  %80 = lshr i128 %77, 56
  %indvars.iv.next36.i = add nuw nsw i64 %indvars.iv35.i, 1
  %exitcond38.not.i = icmp eq i64 %indvars.iv.next36.i, 8
  br i1 %exitcond38.not.i, label %gf_strong_reduce.exit, label %68, !llvm.loop !12

gf_strong_reduce.exit:                            ; preds = %68
  %81 = load i64, ptr %2, align 16, !tbaa !7
  %82 = and i64 %81, 1
  %83 = sub nsw i64 0, %82
  call void @llvm.lifetime.end.p0(i64 64, ptr nonnull %2) #6
  ret i64 %83
}